target datalayout = "e-m:e-p270:32:32-p271:32:32-p272:64:64-i64:64-i128:128-f80:128-n8:16:32:64-S128"
target triple = "x86_64-pc-linux-gnu"

%struct.tm = type { i32, i32, i32, i32, i32, i32, i32, i32, i32, i64, ptr }

@.str.30 = private unnamed_addr constant [8 x i8] c"Unknown\00", align 1
@.str.31 = private unnamed_addr constant [5 x i8] c"None\00", align 1
@_make_time_str_internal.fmt_buf = internal global [32 x i8] zeroinitializer, align 16
@_make_time_str_internal.display_fmt = internal global ptr @.str.32, align 8
@.str.33 = private unnamed_addr constant [18 x i8] c"SLURM_TIME_FORMAT\00", align 1
@.str.34 = private unnamed_addr constant [9 x i8] c"standard\00", align 1
@.str.35 = private unnamed_addr constant [9 x i8] c"relative\00", align 1
@.str.36 = private unnamed_addr constant [33 x i8] c"invalid SLURM_TIME_FORMAT = '%s'\00", align 1
@_relative_date_fmt.todays_date = internal global i32 0, align 4
@.str.37 = private unnamed_addr constant [13 x i8] c"Ystday %H:%M\00", align 1
@.str.38 = private unnamed_addr constant [9 x i8] c"%H:%M:%S\00", align 1
@.str.39 = private unnamed_addr constant [13 x i8] c"Tomorr %H:%M\00", align 1
@.str.40 = private unnamed_addr constant [10 x i8] c"%-d %b %Y\00", align 1
@.str.41 = private unnamed_addr constant [13 x i8] c"%-d %b %H:%M\00", align 1
@.str.42 = private unnamed_addr constant [9 x i8] c"%a %H:%M\00", align 1

; Function Attrs: nounwind uwtable
define internal ptr @_relative_date_fmt(ptr noundef %0) #0 {
  %2 = alloca ptr, align 8
  %3 = alloca ptr, align 8
  %4 = alloca i32, align 4
  %5 = alloca i64, align 8
  %6 = alloca %struct.tm, align 8
  %7 = alloca i32, align 4
  store ptr %0, ptr %3, align 8
  call void @llvm.lifetime.start.p0(i64 4, ptr %4) #7
  %8 = load ptr, ptr %3, align 8
  %9 = getelementptr inbounds nuw %struct.tm, ptr %8, i32 0, i32 5
  %10 = load i32, ptr %9, align 4
  %11 = add nsw i32 %10, 1900
  %12 = mul nsw i32 1000, %11
  %13 = load ptr, ptr %3, align 8
  %14 = getelementptr inbounds nuw %struct.tm, ptr %13, i32 0, i32 7
  %15 = load i32, ptr %14, align 4
  %16 = add nsw i32 %12, %15
  store i32 %16, ptr %4, align 4
  %17 = load i32, ptr @_relative_date_fmt.todays_date, align 4
  %18 = icmp ne i32 %17, 0
  br i1 %18, label %29, label %19

19:                                               ; preds = %1
  call void @llvm.lifetime.start.p0(i64 8, ptr %5) #7
  %20 = call i64 @time(ptr noundef null) #7
  store i64 %20, ptr %5, align 8
  call void @llvm.lifetime.start.p0(i64 56, ptr %6) #7
  %21 = call ptr @localtime_r(ptr noundef %5, ptr noundef %6) #7
  %22 = getelementptr inbounds nuw %struct.tm, ptr %6, i32 0, i32 5
  %23 = load i32, ptr %22, align 4
  %24 = add nsw i32 %23, 1900
  %25 = mul nsw i32 1000, %24
  %26 = getelementptr inbounds nuw %struct.tm, ptr %6, i32 0, i32 7
  %27 = load i32, ptr %26, align 4
  %28 = add nsw i32 %25, %27
  store i32 %28, ptr @_relative_date_fmt.todays_date, align 4
  call void @llvm.lifetime.end.p0(i64 56, ptr %6) #7
  call void @llvm.lifetime.end.p0(i64 8, ptr %5) #7
  br label %29

29:                                               ; preds = %19, %1
  %30 = load i32, ptr @_relative_date_fmt.todays_date, align 4
  %31 = load i32, ptr %4, align 4
  %32 = sub nsw i32 %31, %30
  store i32 %32, ptr %4, align 4
  %33 = load i32, ptr %4, align 4
  %34 = icmp eq i32 %33, -1
  br i1 %34, label %35, label %36

35:                                               ; preds = %29
  store ptr @.str.37, ptr %2, align 8
  store i32 1, ptr %7, align 4
  br label %59

36:                                               ; preds = %29
  %37 = load i32, ptr %4, align 4
  %38 = icmp eq i32 %37, 0
  br i1 %38, label %39, label %40

39:                                               ; preds = %36
  store ptr @.str.38, ptr %2, align 8
  store i32 1, ptr %7, align 4
  br label %59

40:                                               ; preds = %36
  %41 = load i32, ptr %4, align 4
  %42 = icmp eq i32 %41, 1
  br i1 %42, label %43, label %44

43:                                               ; preds = %40
  store ptr @.str.39, ptr %2, align 8
  store i32 1, ptr %7, align 4
  br label %59

44:                                               ; preds = %40
  %45 = load i32, ptr %4, align 4
  %46 = icmp slt i32 %45, -365
  br i1 %46, label %50, label %47

47:                                               ; preds = %44
  %48 = load i32, ptr %4, align 4
  %49 = icmp sgt i32 %48, 365
  br i1 %49, label %50, label %51

50:                                               ; preds = %47, %44
  store ptr @.str.40, ptr %2, align 8
  store i32 1, ptr %7, align 4
  br label %59

51:                                               ; preds = %47
  %52 = load i32, ptr %4, align 4
  %53 = icmp slt i32 %52, -1
  br i1 %53, label %57, label %54

54:                                               ; preds = %51
  %55 = load i32, ptr %4, align 4
  %56 = icmp sgt i32 %55, 6
  br i1 %56, label %57, label %58

57:                                               ; preds = %54, %51
  store ptr @.str.41, ptr %2, align 8
  store i32 1, ptr %7, align 4
  br label %59

58:                                               ; preds = %54
  store ptr @.str.42, ptr %2, align 8
  store i32 1, ptr %7, align 4
  br label %59

59:                                               ; preds = %58, %57, %50, %43, %39, %35
  call void @llvm.lifetime.end.p0(i64 4, ptr %4) #7
  %60 = load ptr, ptr %2, align 8
  ret ptr %60
}

; Function Attrs: nounwind uwtable
define internal void @_make_time_str_internal(ptr noundef %0, i1 noundef zeroext %1, ptr noundef %2, i32 noundef %3) #0 {
  %5 = alloca ptr, align 8
  %6 = alloca i8, align 1
  %7 = alloca ptr, align 8
  %8 = alloca i32, align 4
  %9 = alloca %struct.tm, align 8
  %10 = alloca ptr, align 8
  store ptr %0, ptr %5, align 8
  %11 = zext i1 %1 to i8
  store i8 %11, ptr %6, align 1
  store ptr %2, ptr %7, align 8
  store i32 %3, ptr %8, align 4
  call void @llvm.lifetime.start.p0(i64 56, ptr %9) #7
  %12 = load i8, ptr %6, align 1, !range !15, !noundef !16
  %13 = trunc i8 %12 to i1
  br i1 %13, label %14, label %17

14:                                               ; preds = %4
  %15 = load ptr, ptr %5, align 8
  %16 = call ptr @gmtime_r(ptr noundef %15, ptr noundef %9) #7
  br label %20

17:                                               ; preds = %4
  %18 = load ptr, ptr %5, align 8
  %19 = call ptr @localtime_r(ptr noundef %18, ptr noundef %9) #7
  br label %20

20:                                               ; preds = %17, %14
  %21 = load ptr, ptr %5, align 8
  %22 = load i64, ptr %21, align 8
  %23 = icmp eq i64 %22, 0
  br i1 %23, label %28, label %24

24:                                               ; preds = %20
  %25 = load ptr, ptr %5, align 8
  %26 = load i64, ptr %25, align 8
  %27 = icmp eq i64 %26, 4294967295
  br i1 %27, label %28, label %33

28:                                               ; preds = %24, %20
  %29 = load ptr, ptr %7, align 8
  %30 = load i32, ptr %8, align 4
  %31 = sext i32 %30 to i64
  %32 = call i32 (ptr, i64, ptr, ...) @snprintf(ptr noundef %29, i64 noundef %31, ptr noundef @.str.30) #7
  br label %99

33:                                               ; preds = %24
  %34 = load ptr, ptr %5, align 8
  %35 = load i64, ptr %34, align 8
  %36 = icmp eq i64 %35, 4294967294
  br i1 %36, label %37, label %42

37:                                               ; preds = %33
  %38 = load ptr, ptr %7, align 8
  %39 = load i32, ptr %8, align 4
  %40 = sext i32 %39 to i64
  %41 = call i32 (ptr, i64, ptr, ...) @snprintf(ptr noundef %38, i64 noundef %40, ptr noundef @.str.31) #7
  br label %98

42:                                               ; preds = %33
  %43 = load i8, ptr %6, align 1, !range !15, !noundef !16
  %44 = trunc i8 %43 to i1
  br i1 %44, label %81, label %45

45:                                               ; preds = %42
  call void @llvm.lifetime.start.p0(i64 8, ptr %10) #7
  %46 = call ptr @getenv(ptr noundef @.str.33) #7
  store ptr %46, ptr %10, align 8
  %47 = load ptr, ptr %10, align 8
  %48 = icmp ne ptr %47, null
  br i1 %48, label %49, label %57

49:                                               ; preds = %45
  %50 = load ptr, ptr %10, align 8
  %51 = load i8, ptr %50, align 1
  %52 = icmp ne i8 %51, 0
  br i1 %52, label %53, label %57

53:                                               ; preds = %49
  %54 = load ptr, ptr %10, align 8
  %55 = call i32 @xstrcmp(ptr noundef %54, ptr noundef @.str.34)
  %56 = icmp ne i32 %55, 0
  br i1 %56, label %58, label %57

57:                                               ; preds = %53, %49, %45
  br label %80

58:                                               ; preds = %53
  %59 = load ptr, ptr %10, align 8
  %60 = call i32 @xstrcmp(ptr noundef %59, ptr noundef @.str.35)
  %61 = icmp ne i32 %60, 0
  br i1 %61, label %64, label %62

62:                                               ; preds = %58
  %63 = call ptr @_relative_date_fmt(ptr noundef %9)
  store ptr %63, ptr @_make_time_str_internal.display_fmt, align 8
  br label %79

64:                                               ; preds = %58
  %65 = load ptr, ptr %10, align 8
  %66 = call ptr @strchr(ptr noundef %65, i32 noundef 37) #9
  %67 = icmp eq ptr %66, null
  br i1 %67, label %72, label %68

68:                                               ; preds = %64
  %69 = load ptr, ptr %10, align 8
  %70 = call i64 @strlen(ptr noundef %69) #9
  %71 = icmp uge i64 %70, 32
  br i1 %71, label %72, label %75

72:                                               ; preds = %68, %64
  %73 = load ptr, ptr %10, align 8
  %74 = call i32 (ptr, ...) @error(ptr noundef @.str.36, ptr noundef %73)
  br label %78

75:                                               ; preds = %68
  %76 = load ptr, ptr %10, align 8
  %77 = call i64 @strlcpy(ptr noundef @_make_time_str_internal.fmt_buf, ptr noundef %76, i64 noundef 32)
  store ptr @_make_time_str_internal.fmt_buf, ptr @_make_time_str_internal.display_fmt, align 8
  br label %78

78:                                               ; preds = %75, %72
  br label %79

79:                                               ; preds = %78, %62
  br label %80

80:                                               ; preds = %79, %57
  call void @llvm.lifetime.end.p0(i64 8, ptr %10) #7
  br label %81

81:                                               ; preds = %80, %42
  %82 = load ptr, ptr %7, align 8
  %83 = load i32, ptr %8, align 4
  %84 = sext i32 %83 to i64
  %85 = load ptr, ptr @_make_time_str_internal.display_fmt, align 8
  %86 = call i64 @strftime(ptr noundef %82, i64 noundef %84, ptr noundef %85, ptr noundef %9) #7
  %87 = icmp ne i64 %86, 0
  br i1 %87, label %97, label %88

88:                                               ; preds = %81
  %89 = load ptr, ptr %7, align 8
  %90 = load i32, ptr %8, align 4
  %91 = sext i32 %90 to i64
  call void @llvm.memset.p0.i64(ptr align 1 %89, i8 35, i64 %91, i1 false)
  %92 = load ptr, ptr %7, align 8
  %93 = load i32, ptr %8, align 4
  %94 = sub nsw i32 %93, 1
  %95 = sext i32 %94 to i64
  %96 = getelementptr inbounds i8, ptr %92, i64 %95
  store i8 0, ptr %96, align 1
  br label %97

97:                                               ; preds = %88, %81
  br label %98

98:                                               ; preds = %97, %37
  br label %99

99:                                               ; preds = %98, %28
  call void @llvm.lifetime.end.p0(i64 56, ptr %9) #7
  ret void
}

; Function Attrs: nounwind uwtable
define dso_local void @parse_time_make_str_utc(ptr noundef %0, ptr noundef %1, i32 noundef %2) #0 {
  %4 = alloca ptr, align 8
  %5 = alloca ptr, align 8
  %6 = alloca i32, align 4
  store ptr %0, ptr %4, align 8
  store ptr %1, ptr %5, align 8
  store i32 %2, ptr %6, align 4
  %7 = load ptr, ptr %4, align 8
  %8 = load ptr, ptr %5, align 8
  %9 = load i32, ptr %6, align 4
  call void @_make_time_str_internal(ptr noundef %7, i1 noundef zeroext true, ptr noundef %8, i32 noundef %9)
  ret void
}